   1              		.file	"main.c"
   9              	.Ltext0:
  10              		.section	.rodata
  11              		.align	2
  12              	.LC0:
  13 0000 0A0A204D 		.ascii	"\012\012 Matrix a:\012\000"
  13      61747269 
  13      7820613A 
  13      0A00
  14 000e 0000     		.align	2
  15              	.LC1:
  16 0010 25640900 		.ascii	"%d\011\000"
  17              		.align	2
  18              	.LC2:
  19 0014 0A00     		.ascii	"\012\000"
  20 0016 0000     		.align	2
  21              	.LC3:
  22 0018 0A0A204D 		.ascii	"\012\012 Matrix b:\012\000"
  22      61747269 
  22      7820623A 
  22      0A00
  23              		.global	__floatunsidf
  24              		.global	__divdf3
  25 0026 0000     		.align	2
  26              	.LC4:
  27 0028 0A0A2052 		.ascii	"\012\012 Result:\012\000"
  27      6573756C 
  27      743A0A00 
  28              		.align	2
  29              	.LC5:
  30 0034 25640909 		.ascii	"%d\011\011\000"
  30      00
  31 0039 000000   		.align	2
  32              	.LC6:
  33 003c 0A0A2323 		.ascii	"\012\012################### Timerueberlauf ########"
  33      23232323 
  33      23232323 
  33      23232323 
  33      23232323 
  34 0069 23232323 		.ascii	"###########\012\000"
  34      23232323 
  34      2323230A 
  34      00
  35 0076 0000     		.align	2
  36              	.LC7:
  37 0078 23232323 		.ascii	"########## Bitte Timerfrequenz anpassen !!! #######"
  37      23232323 
  37      23232042 
  37      69747465 
  37      2054696D 
  38 00ab 2323230A 		.ascii	"###\012\012\000"
  38      0A00
  39 00b1 000000   		.align	2
  40              	.LC8:
  41 00b4 42657265 		.ascii	"Berechnung dauerte: %f\012\000"
  41      63686E75 
  41      6E672064 
  41      61756572 
  41      74653A20 
  42              		.text
  43              		.align	2
  44              		.global	main
  46              	main:
  47              	.LFB2:
  48              		.file 1 "main.c"
   1:main.c        **** //********************************************************************
   2:main.c        **** // ARM_T0A1  									Version 23.11.2017 CS
   3:main.c        **** //********************************************************************
   4:main.c        **** #include	"include/AT91SAM7S64.h"			// Definition von ARM7 typischen Registern etc.
   5:main.c        **** #include 	"include/stdlib.h"
   6:main.c        **** #include	"include/serial.h"
   7:main.c        **** #include 	"include/string.h"
   8:main.c        **** #include 	"include/stdio.h"
   9:main.c        **** 
  10:main.c        **** #define BUFFSIZE					60
  11:main.c        **** 
  12:main.c        **** // Betriebsfrequenzen des Timers
  13:main.c        **** #define TIMER_FRQ_12000000HZ		0
  14:main.c        **** #define TIMER_FRQ_3000000HZ			1
  15:main.c        **** #define TIMER_FRQ_750000HZ			2
  16:main.c        **** #define TIMER_FRQ_187500HZ			3
  17:main.c        **** #define TIMER_FRQ_23437_5HZ			4
  18:main.c        **** 
  19:main.c        **** #define USED_FREQUENCY				12000000000			// Timerfrequency in mHz
  20:main.c        **** 
  21:main.c        **** #if USED_FREQUENCY == 12000000000
  22:main.c        **** #define USED_TIMER	TIMER_FRQ_12000000HZ
  23:main.c        **** #else
  24:main.c        **** #if  USED_FREQUENCY==3000000000
  25:main.c        **** #define USED_TIMER	TIMER_FRQ_3000000HZ
  26:main.c        **** #else
  27:main.c        **** #if   USED_FREQUENCY==750000000
  28:main.c        **** #define USED_TIMER	TIMER_FRQ_750000HZ
  29:main.c        **** #else
  30:main.c        **** #if   USED_FREQUENCY==187500000
  31:main.c        **** #define USED_TIMER	TIMER_FRQ_187500HZ
  32:main.c        **** #else
  33:main.c        **** #if   USED_FREQUENCY==23437500
  34:main.c        **** #define USED_TIMER	TIMER_FRQ_23437_5HZ
  35:main.c        **** #endif
  36:main.c        **** #endif
  37:main.c        **** #endif
  38:main.c        **** #endif
  39:main.c        **** #endif
  40:main.c        **** 
  41:main.c        **** #define ZEILEN		2
  42:main.c        **** #define SPALTEN		2
  43:main.c        **** 
  44:main.c        **** // *****************************************************************
  45:main.c        **** // ******* Change here for different data types ********************
  46:main.c        **** // *****************************************************************
  47:main.c        **** #define	DATATYPE	1		// 1: int; 2:float; 3:double
  48:main.c        **** #if DATATYPE == 1
  49:main.c        **** #define	TYPE	int
  50:main.c        **** #define PRN		"%d"
  51:main.c        **** #else
  52:main.c        **** #if DATATYPE == 2
  53:main.c        **** #define	TYPE	float
  54:main.c        **** #define PRN		"%f"
  55:main.c        **** #else
  56:main.c        **** #if DATATYPE == 3
  57:main.c        **** #define	TYPE	double
  58:main.c        **** #define PRN		"%lf"
  59:main.c        **** #endif
  60:main.c        **** #endif
  61:main.c        **** #endif
  62:main.c        **** 
  63:main.c        **** int main() {
  49              	72
  50              		@ frame_needed = 1, uses_anonymous_args = 0
  51              		mov	ip, sp
  52 0000 0DC0A0E1 	.LCFI0:
  53              		stmfd	sp!, {r4, r5, fp, ip, lr, pc}
  54 0004 30D82DE9 	.LCFI1:
  55              		sub	fp, ip, #4
  56 0008 04B04CE2 	.LCFI2:
  57              		sub	sp, sp, #176
  58 000c B0D04DE2 	.LCFI3:
  59              		.loc 1 67 0
  64:main.c        **** 	TYPE matrix_a[ZEILEN][SPALTEN];
  65:main.c        **** 	TYPE matrix_b[ZEILEN][SPALTEN];
  66:main.c        **** 	TYPE matrix_c[ZEILEN][SPALTEN];
  67:main.c        **** 	usart0_init();
  60              	init
  61 0010 FEFFFFEB 	.LBB2:
  62              		.loc 1 71 0
  68:main.c        **** 	char buffer[BUFFSIZE];
  69:main.c        **** 
  70:main.c        **** 	//Fuelle Matrizen A,B
  71:main.c        **** 	for (int i = 0; i < ZEILEN; i++) {
  63              	v	r3, #0
  64 0014 0030A0E3 		str	r3, [fp, #-72]
  65 0018 48300BE5 		b	.L2
  66 001c 310000EA 	.L5:
  67              	.LBB3:
  68              		.loc 1 72 0
  72:main.c        **** 		for (int j = 0; j < SPALTEN; j++) {
  69              	3, #0
  70 0020 0030A0E3 		str	r3, [fp, #-68]
  71 0024 44300BE5 		b	.L3
  72 0028 280000EA 	.L4:
  73              		.loc 1 73 0
  73:main.c        **** 			matrix_a[i][j] = rand() % 4096;
  74              	r4, [fp, #-72]
  75 002c 48401BE5 		ldr	r5, [fp, #-68]
  76 0030 44501BE5 		bl	rand
  77 0034 FEFFFFEB 		mov	r2, r0
  78 0038 0020A0E1 		mov	r3, r2, asr #31
  79 003c C23FA0E1 		mov	r1, r3, lsr #20
  80 0040 231AA0E1 		add	r3, r2, r1
  81 0044 013082E0 		mov	r3, r3, asl #20
  82 0048 033AA0E1 		mov	r3, r3, lsr #20
  83 004c 233AA0E1 		rsb	r3, r1, r3
  84 0050 033061E0 		mov	r1, r3
  85 0054 0310A0E1 		mov	r3, r4, asl #1
  86 0058 8430A0E1 		add	r3, r3, r5
  87 005c 053083E0 		mvn	r2, #79
  88 0060 4F20E0E3 		mov	r3, r3, asl #2
  89 0064 0331A0E1 		sub	r0, fp, #20
  90 0068 14004BE2 		add	r3, r0, r3
  91 006c 033080E0 		add	r3, r3, r2
  92 0070 023083E0 		str	r1, [r3, #0]
  93 0074 001083E5 		.loc 1 74 0
  74:main.c        **** 			matrix_b[i][j] = rand() % 4096;
  94              		ldr	r5, [fp, #-68]
  95 0078 48401BE5 		bl	rand
  96 007c 44501BE5 		mov	r2, r0
  97 0080 FEFFFFEB 		mov	r3, r2, asr #31
  98 0084 0020A0E1 		mov	r1, r3, lsr #20
  99 0088 C23FA0E1 		add	r3, r2, r1
 100 008c 231AA0E1 		mov	r3, r3, asl #20
 101 0090 013082E0 		mov	r3, r3, lsr #20
 102 0094 033AA0E1 		rsb	r3, r1, r3
 103 0098 233AA0E1 		mov	r1, r3
 104 009c 033061E0 		mov	r3, r4, asl #1
 105 00a0 0310A0E1 		add	r3, r3, r5
 106 00a4 8430A0E1 		mvn	r2, #95
 107 00a8 053083E0 		mov	r3, r3, asl #2
 108 00ac 5F20E0E3 		sub	r4, fp, #20
 109 00b0 0331A0E1 		add	r3, r4, r3
 110 00b4 14404BE2 		add	r3, r3, r2
 111 00b8 033084E0 		str	r1, [r3, #0]
 112 00bc 023083E0 		.loc 1 72 0
 113 00c0 001083E5 		ldr	r3, [fp, #-68]
 114              		add	r3, r3, #1
 115 00c4 44301BE5 		str	r3, [fp, #-68]
 116 00c8 013083E2 	.L3:
 117 00cc 44300BE5 		ldr	r3, [fp, #-68]
 118              		cmp	r3, #1
 119 00d0 44301BE5 		ble	.L4
 120 00d4 010053E3 	.LBE3:
 121 00d8 D3FFFFDA 		.loc 1 71 0
 122              		ldr	r3, [fp, #-72]
 123              		add	r3, r3, #1
 124 00dc 48301BE5 		str	r3, [fp, #-72]
 125 00e0 013083E2 	.L2:
 126 00e4 48300BE5 		ldr	r3, [fp, #-72]
 127              		cmp	r3, #1
 128 00e8 48301BE5 		ble	.L5
 129 00ec 010053E3 	.LBE2:
 130 00f0 CAFFFFDA 	.LBB4:
 131              		.loc 1 78 0
 132              		mov	r3, #0
  75:main.c        **** 		}
  76:main.c        **** 	}
  77:main.c        **** 	//Nulle Matrize C
  78:main.c        **** 	for (int i = 0; i < ZEILEN; i++) {
 133              		.loc 1 79 0
 134 00f4 0030A0E3 		mov	r3, #0
 135 00f8 40300BE5 		str	r3, [fp, #-60]
 136 00fc 160000EA 		b	.L7
 137              	.L8:
 138              		.loc 1 80 0
  79:main.c        **** 		for (int j = 0; j < SPALTEN; j++) {
 139              	3, [fp, #-64]
 140 0100 0030A0E3 		ldr	r2, [fp, #-60]
 141 0104 3C300BE5 		mov	r3, r3, asl #1
 142 0108 0D0000EA 		add	r3, r3, r2
 143              		mvn	r2, #111
  80:main.c        **** 			matrix_c[i][j] = 0;
 144              	r3, r3, asl #2
 145 010c 40301BE5 		sub	r0, fp, #20
 146 0110 3C201BE5 		add	r3, r0, r3
 147 0114 8330A0E1 		add	r2, r3, r2
 148 0118 023083E0 		mov	r3, #0
 149 011c 6F20E0E3 		str	r3, [r2, #0]
 150 0120 0331A0E1 		.loc 1 79 0
 151 0124 14004BE2 		ldr	r3, [fp, #-60]
 152 0128 033080E0 		add	r3, r3, #1
 153 012c 022083E0 		str	r3, [fp, #-60]
 154 0130 0030A0E3 	.L7:
 155 0134 003082E5 		ldr	r3, [fp, #-60]
 156              		cmp	r3, #1
 157 0138 3C301BE5 		ble	.L8
 158 013c 013083E2 	.LBE5:
 159 0140 3C300BE5 		.loc 1 78 0
 160              		ldr	r3, [fp, #-64]
 161 0144 3C301BE5 		add	r3, r3, #1
 162 0148 010053E3 		str	r3, [fp, #-64]
 163 014c EEFFFFDA 	.L6:
 164              		ldr	r3, [fp, #-64]
 165              		cmp	r3, #1
 166 0150 40301BE5 		ble	.L9
 167 0154 013083E2 	.LBE4:
 168 0158 40300BE5 		.loc 1 85 0
 169              		ldr	r0, .L31
 170 015c 40301BE5 		bl	usart0_puts
 171 0160 010053E3 	.LBB6:
 172 0164 E5FFFFDA 		.loc 1 86 0
 173              		mov	r3, #0
  81:main.c        **** 		}
  82:main.c        **** 	}
  83:main.c        **** 
  84:main.c        **** 	// Ausgabe der Matrix A
  85:main.c        **** 	usart0_puts("\n\n Matrix a:\n");
 174              	13:
 175 0168 FC039FE5 	.LBB7:
 176 016c FEFFFFEB 		.loc 1 87 0
 177              		mov	r3, #0
  86:main.c        **** 	for (int i = 0; i < ZEILEN; i++) {
 178              		r3, [fp, #-52]
 179 0170 0030A0E3 		b	.L11
 180 0174 38300BE5 	.L12:
 181 0178 200000EA 		.loc 1 88 0
 182              		ldr	r3, [fp, #-56]
 183              		ldr	r2, [fp, #-52]
  87:main.c        **** 		for (int j = 0; j < SPALTEN; j++) {
 184              	3, r3, asl #1
 185 017c 0030A0E3 		add	r3, r3, r2
 186 0180 34300BE5 		mvn	r2, #79
 187 0184 150000EA 		mov	r3, r3, asl #2
 188              		sub	r1, fp, #20
  88:main.c        **** 			snprintf(buffer, BUFFSIZE, PRN"\t", matrix_a[i][j]);
 189              	r3, r1, r3
 190 0188 38301BE5 		add	r3, r3, r2
 191 018c 34201BE5 		ldr	ip, [r3, #0]
 192 0190 8330A0E1 		sub	r3, fp, #192
 193 0194 023083E0 		mov	r0, r3
 194 0198 4F20E0E3 		mov	r1, #60
 195 019c 0331A0E1 		ldr	r2, .L31+4
 196 01a0 14104BE2 		mov	r3, ip
 197 01a4 033081E0 		bl	snprintf
 198 01a8 023083E0 		.loc 1 89 0
 199 01ac 00C093E5 		sub	r3, fp, #192
 200 01b0 C0304BE2 		mov	r0, r3
 201 01b4 0300A0E1 		bl	usart0_puts
 202 01b8 3C10A0E3 		.loc 1 87 0
 203 01bc AC239FE5 		ldr	r3, [fp, #-52]
 204 01c0 0C30A0E1 		add	r3, r3, #1
 205 01c4 FEFFFFEB 		str	r3, [fp, #-52]
  89:main.c        **** 			usart0_puts(buffer);
 206              	p, #-52]
 207 01c8 C0304BE2 		cmp	r3, #1
 208 01cc 0300A0E1 		ble	.L12
 209 01d0 FEFFFFEB 	.LBE7:
 210              		.loc 1 91 0
 211 01d4 34301BE5 		ldr	r0, .L31+8
 212 01d8 013083E2 		bl	usart0_puts
 213 01dc 34300BE5 		.loc 1 86 0
 214              		ldr	r3, [fp, #-56]
 215 01e0 34301BE5 		add	r3, r3, #1
 216 01e4 010053E3 		str	r3, [fp, #-56]
 217 01e8 E6FFFFDA 	.L10:
 218              		ldr	r3, [fp, #-56]
  90:main.c        **** 		}
  91:main.c        **** 		usart0_puts("\n");
 219              	ble	.L13
 220 01ec 80039FE5 	.LBE6:
 221 01f0 FEFFFFEB 		.loc 1 95 0
 222              		ldr	r0, .L31+12
 223 01f4 38301BE5 		bl	usart0_puts
 224 01f8 013083E2 	.LBB8:
 225 01fc 38300BE5 		.loc 1 96 0
 226              		mov	r3, #0
 227 0200 38301BE5 		str	r3, [fp, #-48]
 228 0204 010053E3 		b	.L14
 229 0208 DBFFFFDA 	.L17:
 230              	.LBB9:
  92:main.c        **** 	}
  93:main.c        **** 
  94:main.c        **** 	// Ausgabe der Matrix B
  95:main.c        **** 	usart0_puts("\n\n Matrix b:\n");
 231              	
 232 020c 64039FE5 		mov	r3, #0
 233 0210 FEFFFFEB 		str	r3, [fp, #-44]
 234              		b	.L15
  96:main.c        **** 	for (int i = 0; i < ZEILEN; i++) {
 235              	6:
 236 0214 0030A0E3 		.loc 1 98 0
 237 0218 30300BE5 		ldr	r3, [fp, #-48]
 238 021c 200000EA 		ldr	r2, [fp, #-44]
 239              		mov	r3, r3, asl #1
 240              		add	r3, r3, r2
  97:main.c        **** 		for (int j = 0; j < SPALTEN; j++) {
 241              	2, #95
 242 0220 0030A0E3 		mov	r3, r3, asl #2
 243 0224 2C300BE5 		sub	r4, fp, #20
 244 0228 150000EA 		add	r3, r4, r3
 245              		add	r3, r3, r2
  98:main.c        **** 			snprintf(buffer, BUFFSIZE, PRN"\t", matrix_b[i][j]);
 246              	ip, [r3, #0]
 247 022c 30301BE5 		sub	r3, fp, #192
 248 0230 2C201BE5 		mov	r0, r3
 249 0234 8330A0E1 		mov	r1, #60
 250 0238 023083E0 		ldr	r2, .L31+4
 251 023c 5F20E0E3 		mov	r3, ip
 252 0240 0331A0E1 		bl	snprintf
 253 0244 14404BE2 		.loc 1 99 0
 254 0248 033084E0 		sub	r3, fp, #192
 255 024c 023083E0 		mov	r0, r3
 256 0250 00C093E5 		bl	usart0_puts
 257 0254 C0304BE2 		.loc 1 97 0
 258 0258 0300A0E1 		ldr	r3, [fp, #-44]
 259 025c 3C10A0E3 		add	r3, r3, #1
 260 0260 08239FE5 		str	r3, [fp, #-44]
 261 0264 0C30A0E1 	.L15:
 262 0268 FEFFFFEB 		ldr	r3, [fp, #-44]
  99:main.c        **** 			usart0_puts(buffer);
 263              	.L16
 264 026c C0304BE2 	.LBE9:
 265 0270 0300A0E1 		.loc 1 101 0
 266 0274 FEFFFFEB 		ldr	r0, .L31+8
 267              		bl	usart0_puts
 268 0278 2C301BE5 		.loc 1 96 0
 269 027c 013083E2 		ldr	r3, [fp, #-48]
 270 0280 2C300BE5 		add	r3, r3, #1
 271              		str	r3, [fp, #-48]
 272 0284 2C301BE5 	.L14:
 273 0288 010053E3 		ldr	r3, [fp, #-48]
 274 028c E6FFFFDA 		cmp	r3, #1
 275              		ble	.L17
 100:main.c        **** 		}
 101:main.c        **** 		usart0_puts("\n");
 276              	1 105 0
 277 0290 DC029FE5 		mov	r3, #-2147483648
 278 0294 FEFFFFEB 		mov	r3, r3, asr #21
 279              		mov	r2, #4096
 280 0298 30301BE5 		str	r2, [r3, #16]
 281 029c 013083E2 		.loc 1 107 0
 282 02a0 30300BE5 		mov	r2, #-1610612736
 283              		mov	r2, r2, asr #12
 284 02a4 30301BE5 		mov	r3, #32768
 285 02a8 010053E3 		add	r3, r3, #128
 286 02ac DBFFFFDA 		str	r3, [r2, #4]
 287              		.loc 1 108 0
 102:main.c        **** 	}
 103:main.c        **** 
 104:main.c        **** 	//Timer initialisierung
 105:main.c        **** 	AT91C_BASE_PMC->PMC_PCER = (1 << AT91C_ID_TC0); // Taktweiterleitung an Timer
 288              	610612736
 289 02b0 0231A0E3 		mov	r2, r2, asr #12
 290 02b4 C33AA0E1 		mov	r3, #65536
 291 02b8 012AA0E3 		sub	r3, r3, #1
 292 02bc 102083E5 		str	r3, [r2, #28]
 106:main.c        **** 	// Timer-Betriebsfrequenz und Modus
 107:main.c        **** 	AT91C_BASE_TC0->TC_CMR = AT91C_TC_WAVE | AT91C_TC_CPCDIS | USED_TIMER;
 293              	 1 109 0
 294 02c0 0A22A0E3 		mov	r3, #-1610612736
 295 02c4 4226A0E1 		mov	r3, r3, asr #12
 296 02c8 0239A0E3 		mov	r2, #1
 297 02cc 803083E2 		str	r2, [r3, #0]
 298 02d0 043082E5 		.loc 1 110 0
 108:main.c        **** 	AT91C_BASE_TC0->TC_RC = 0xFFFF; // Maximaler Timerwert
 299              	3, #-1610612736
 300 02d4 0A22A0E3 		mov	r3, r3, asr #12
 301 02d8 4226A0E1 		mov	r2, #4
 302 02dc 0138A0E3 		str	r2, [r3, #0]
 303 02e0 013043E2 	.LBB10:
 304 02e4 1C3082E5 		.loc 1 113 0
 109:main.c        **** 	AT91C_BASE_TC0->TC_CCR = AT91C_TC_CLKEN; // Taktfreigabe
 305              	3, #0
 306 02e8 0A32A0E3 		str	r3, [fp, #-40]
 307 02ec 4336A0E1 		b	.L18
 308 02f0 0120A0E3 	.L23:
 309 02f4 002083E5 	.LBB11:
 110:main.c        **** 	AT91C_BASE_TC0->TC_CCR = AT91C_TC_SWTRG; // Zurücksetzen des Zählers
 310              	 1 114 0
 311 02f8 0A32A0E3 		mov	r3, #0
 312 02fc 4336A0E1 		str	r3, [fp, #-36]
 313 0300 0420A0E3 		b	.L19
 314 0304 002083E5 	.L22:
 315              	.LBB12:
 111:main.c        **** 
 112:main.c        **** 	// Matrizenmultiplikation
 113:main.c        **** 	for (int row = 0; row < ZEILEN; row++) {
 316              	1 115 0
 317 0308 0030A0E3 		mov	r3, #0
 318 030c 28300BE5 		str	r3, [fp, #-32]
 319 0310 3E0000EA 		b	.L20
 320              	.L21:
 321              		.loc 1 117 0
 114:main.c        **** 		for (int col = 0; col < SPALTEN; col++) {
 322              	0, [fp, #-40]
 323 0314 0030A0E3 		ldr	ip, [fp, #-36]
 324 0318 24300BE5 		ldr	r3, [fp, #-40]
 325 031c 350000EA 		ldr	r2, [fp, #-36]
 326              		mov	r3, r3, asl #1
 327              		add	r3, r3, r2
 115:main.c        **** 			for (int inner = 0; inner < ZEILEN; inner++) {
 328              	2, #111
 329 0320 0030A0E3 		mov	r3, r3, asl #2
 330 0324 20300BE5 		sub	r1, fp, #20
 331 0328 2C0000EA 		add	r3, r1, r3
 332              		add	r3, r3, r2
 116:main.c        **** 				//Multipliziere Reihe A und Spalte B um das Produkt zu bekommen
 117:main.c        **** 				matrix_c[row][col] += matrix_a[row][inner]
 333              	lr, [r3, #0]
 334 032c 28001BE5 		ldr	r3, [fp, #-40]
 335 0330 24C01BE5 		ldr	r2, [fp, #-32]
 336 0334 28301BE5 		mov	r3, r3, asl #1
 337 0338 24201BE5 		add	r3, r3, r2
 338 033c 8330A0E1 		mvn	r2, #79
 339 0340 023083E0 		mov	r3, r3, asl #2
 340 0344 6F20E0E3 		sub	r4, fp, #20
 341 0348 0331A0E1 		add	r3, r4, r3
 342 034c 14104BE2 		add	r3, r3, r2
 343 0350 033081E0 		ldr	r1, [r3, #0]
 344 0354 023083E0 		ldr	r3, [fp, #-32]
 345 0358 00E093E5 		ldr	r2, [fp, #-36]
 346 035c 28301BE5 		mov	r3, r3, asl #1
 347 0360 20201BE5 		add	r3, r3, r2
 348 0364 8330A0E1 		mvn	r2, #95
 349 0368 023083E0 		mov	r3, r3, asl #2
 350 036c 4F20E0E3 		sub	r4, fp, #20
 351 0370 0331A0E1 		add	r3, r4, r3
 352 0374 14404BE2 		add	r3, r3, r2
 353 0378 033084E0 		ldr	r3, [r3, #0]
 354 037c 023083E0 		mul	r3, r1, r3
 355 0380 001093E5 		add	r1, lr, r3
 356 0384 20301BE5 		mov	r3, r0, asl #1
 357 0388 24201BE5 		add	r3, r3, ip
 358 038c 8330A0E1 		mvn	r2, #111
 359 0390 023083E0 		mov	r3, r3, asl #2
 360 0394 5F20E0E3 		sub	r0, fp, #20
 361 0398 0331A0E1 		add	r3, r0, r3
 362 039c 14404BE2 		add	r3, r3, r2
 363 03a0 033084E0 		str	r1, [r3, #0]
 364 03a4 023083E0 		.loc 1 115 0
 365 03a8 003093E5 		ldr	r3, [fp, #-32]
 366 03ac 910303E0 		add	r3, r3, #1
 367 03b0 03108EE0 		str	r3, [fp, #-32]
 368 03b4 8030A0E1 	.L20:
 369 03b8 0C3083E0 		ldr	r3, [fp, #-32]
 370 03bc 6F20E0E3 		cmp	r3, #1
 371 03c0 0331A0E1 		ble	.L21
 372 03c4 14004BE2 	.LBE12:
 373 03c8 033080E0 		.loc 1 114 0
 374 03cc 023083E0 		ldr	r3, [fp, #-36]
 375 03d0 001083E5 		add	r3, r3, #1
 376              		str	r3, [fp, #-36]
 377 03d4 20301BE5 	.L19:
 378 03d8 013083E2 		ldr	r3, [fp, #-36]
 379 03dc 20300BE5 		cmp	r3, #1
 380              		ble	.L22
 381 03e0 20301BE5 	.LBE11:
 382 03e4 010053E3 		.loc 1 113 0
 383 03e8 CFFFFFDA 		ldr	r3, [fp, #-40]
 384              		add	r3, r3, #1
 385              		str	r3, [fp, #-40]
 386 03ec 24301BE5 	.L18:
 387 03f0 013083E2 		ldr	r3, [fp, #-40]
 388 03f4 24300BE5 		cmp	r3, #1
 389              		ble	.L23
 390 03f8 24301BE5 	.LBE10:
 391 03fc 010053E3 		.loc 1 124 0
 392 0400 C6FFFFDA 		mov	r3, #-1610612736
 393              		mov	r3, r3, asr #12
 394              		ldr	r3, [r3, #16]
 395 0404 28301BE5 		str	r3, [fp, #-84]
 396 0408 013083E2 		.loc 1 125 0
 397 040c 28300BE5 		ldr	r0, [fp, #-84]
 398              		bl	__floatunsidf
 399 0410 28301BE5 		mov	r3, r0
 400 0414 010053E3 		mov	r4, r1
 401 0418 BDFFFFDA 		mov	r0, r3
 402              		mov	r1, r4
 118:main.c        **** 						* matrix_b[inner][col];
 119:main.c        **** 			}
 120:main.c        **** 		}
 121:main.c        **** 	}
 122:main.c        **** 
 123:main.c        **** 	// Timer auslesen und Zeit berechnen
 124:main.c        **** 	unsigned int timer_val = AT91C_BASE_TC0->TC_CV;
 403              	v	r3, r0
 404 041c 0A32A0E3 		mov	r4, r1
 405 0420 4336A0E1 		str	r3, [fp, #-80]
 406 0424 103093E5 		str	r4, [fp, #-76]
 407 0428 54300BE5 		.loc 1 128 0
 125:main.c        **** 	double calc_time = timer_val / (USED_FREQUENCY * 10e-6);
 408              	r0, .L31+16
 409 042c 54001BE5 		bl	usart0_puts
 410 0430 FEFFFFEB 	.LBB13:
 411 0434 0030A0E1 		.loc 1 129 0
 412 0438 0140A0E1 		mov	r3, #0
 413 043c 0300A0E1 		str	r3, [fp, #-28]
 414 0440 0410A0E1 		b	.L24
 415 0444 4124A0E3 	.L27:
 416 0448 AD2B42E2 	.LBB14:
 417 044c 0130A0E3 		.loc 1 130 0
 418 0450 FEFFFFEB 		mov	r3, #0
 419 0454 0030A0E1 		str	r3, [fp, #-24]
 420 0458 0140A0E1 		b	.L25
 421 045c 50300BE5 	.L26:
 422 0460 4C400BE5 		.loc 1 131 0
 126:main.c        **** 
 127:main.c        **** 	// Ausgabe der Matrix C
 128:main.c        **** 	usart0_puts("\n\n Result:\n");
 423              	-28]
 424 0464 10019FE5 		ldr	r2, [fp, #-24]
 425 0468 FEFFFFEB 		mov	r3, r3, asl #1
 426              		add	r3, r3, r2
 129:main.c        **** 	for (int i = 0; i < ZEILEN; i++) {
 427              		r2, #111
 428 046c 0030A0E3 		mov	r3, r3, asl #2
 429 0470 1C300BE5 		sub	r1, fp, #20
 430 0474 200000EA 		add	r3, r1, r3
 431              		add	r3, r3, r2
 432              		ldr	ip, [r3, #0]
 130:main.c        **** 		for (int j = 0; j < SPALTEN; j++) {
 433              	3, fp, #192
 434 0478 0030A0E3 		mov	r0, r3
 435 047c 18300BE5 		mov	r1, #60
 436 0480 150000EA 		ldr	r2, .L31+20
 437              		mov	r3, ip
 131:main.c        **** 			snprintf(buffer, BUFFSIZE, PRN"\t\t", matrix_c[i][j]);
 438              	nprintf
 439 0484 1C301BE5 		.loc 1 132 0
 440 0488 18201BE5 		sub	r3, fp, #192
 441 048c 8330A0E1 		mov	r0, r3
 442 0490 023083E0 		bl	usart0_puts
 443 0494 6F20E0E3 		.loc 1 130 0
 444 0498 0331A0E1 		ldr	r3, [fp, #-24]
 445 049c 14104BE2 		add	r3, r3, #1
 446 04a0 033081E0 		str	r3, [fp, #-24]
 447 04a4 023083E0 	.L25:
 448 04a8 00C093E5 		ldr	r3, [fp, #-24]
 449 04ac C0304BE2 		cmp	r3, #1
 450 04b0 0300A0E1 		ble	.L26
 451 04b4 3C10A0E3 	.LBE14:
 452 04b8 C0209FE5 		.loc 1 134 0
 453 04bc 0C30A0E1 		ldr	r0, .L31+8
 454 04c0 FEFFFFEB 		bl	usart0_puts
 132:main.c        **** 			usart0_puts(buffer);
 455              	r	r3, [fp, #-28]
 456 04c4 C0304BE2 		add	r3, r3, #1
 457 04c8 0300A0E1 		str	r3, [fp, #-28]
 458 04cc FEFFFFEB 	.L24:
 459              		ldr	r3, [fp, #-28]
 460 04d0 18301BE5 		cmp	r3, #1
 461 04d4 013083E2 		ble	.L27
 462 04d8 18300BE5 	.LBE13:
 463              		.loc 1 137 0
 464 04dc 18301BE5 		ldr	r2, [fp, #-84]
 465 04e0 010053E3 		mov	r3, #65536
 466 04e4 E6FFFFDA 		sub	r3, r3, #1
 467              		cmp	r2, r3
 133:main.c        **** 		}
 134:main.c        **** 		usart0_puts("\n");
 468              	oc 1 138 0
 469 04e8 84009FE5 		ldr	r0, .L31+24
 470 04ec FEFFFFEB 		bl	usart0_puts
 471              		.loc 1 140 0
 472 04f0 1C301BE5 		ldr	r0, .L31+28
 473 04f4 013083E2 		bl	usart0_puts
 474 04f8 1C300BE5 		.loc 1 142 0
 475              		sub	r3, fp, #192
 476 04fc 1C301BE5 		mov	r0, r3
 477 0500 010053E3 		bl	usart0_puts
 478 0504 DBFFFFDA 		b	.L29
 479              	.L28:
 135:main.c        **** 	}
 136:main.c        **** 
 137:main.c        **** 	if (timer_val == 0xffff) {
 480              	0
 481 0508 54201BE5 		sub	r2, fp, #192
 482 050c 0138A0E3 		ldr	r3, [fp, #-76]
 483 0510 013043E2 		str	r3, [sp, #0]
 484 0514 030052E1 		ldr	r3, [fp, #-80]
 485 0518 0700001A 		mov	r0, r2
 138:main.c        **** 		usart0_puts(
 486              	1, #60
 487 051c 60009FE5 		ldr	r2, .L31+32
 488 0520 FEFFFFEB 		bl	snprintf
 139:main.c        **** 				"\n\n################### Timerueberlauf ###################\n");
 140:main.c        **** 		usart0_puts(
 489              	oc 1 145 0
 490 0524 5C009FE5 		sub	r3, fp, #192
 491 0528 FEFFFFEB 		mov	r0, r3
 141:main.c        **** 				"########## Bitte Timerfrequenz anpassen !!! ##########\n\n");
 142:main.c        **** 		usart0_puts(buffer);
 492              		usart0_puts
 493 052c C0304BE2 	.L29:
 494 0530 0300A0E1 		b	.L29
 495 0534 FEFFFFEB 	.L32:
 496 0538 0A0000EA 		.align	2
 497              	.L31:
 143:main.c        **** 	} else {
 144:main.c        **** 		snprintf(buffer, BUFFSIZE, "Berechnung dauerte: %f\n", calc_time);
 498              		.LC0
 499 053c C0204BE2 		.word	.LC1
 500 0540 4C301BE5 		.word	.LC2
 501 0544 00308DE5 		.word	.LC3
 502 0548 50301BE5 		.word	.LC4
 503 054c 0200A0E1 		.word	.LC5
 504 0550 3C10A0E3 		.word	.LC6
 505 0554 30209FE5 		.word	.LC7
 506 0558 FEFFFFEB 		.word	.LC8
 145:main.c        **** 		usart0_puts(buffer);
 507              	size	main, .-main
 508 055c C0304BE2 		.section	.debug_frame,"",%progbits
 509 0560 0300A0E1 	.Lframe0:
 510 0564 FEFFFFEB 		.4byte	.LECIE0-.LSCIE0
 511              	.LSCIE0:
 512 0568 FEFFFFEA 		.4byte	0xffffffff
 513              		.byte	0x1
 514              		.ascii	"\000"
 515              		.uleb128 0x1
 516 056c 00000000 		.sleb128 -4
 517 0570 10000000 		.byte	0xe
 518 0574 14000000 		.byte	0xc
 519 0578 18000000 		.uleb128 0xd
 520 057c 28000000 		.uleb128 0x0
 521 0580 34000000 		.align	2
 522 0584 3C000000 	.LECIE0:
 523 0588 78000000 	.LSFDE0:
 524 058c B4000000 		.4byte	.LEFDE0-.LASFDE0
 525              	.LASFDE0:
 526              		.4byte	.Lframe0
 572              		.file 2 "include/AT91SAM7S64.h"
DEFINED SYMBOLS
                            *ABS*:00000000 main.c
C:\Users\LUKASR~1\AppData\Local\Temp/ccsGt0gW.s:46     .text:00000000 main
C:\Users\LUKASR~1\AppData\Local\Temp/ccsGt0gW.s:52     .text:00000000 $a
C:\Users\LUKASR~1\AppData\Local\Temp/ccsGt0gW.s:516    .text:0000056c $d

UNDEFINED SYMBOLS
__floatunsidf
__divdf3
usart0_init
rand
usart0_puts
snprintf
